target datalayout = "e-m:e-p270:32:32-p271:32:32-p272:64:64-i64:64-i128:128-f80:128-n8:16:32:64-S128"
target triple = "x86_64-unknown-linux-gnu"

%struct.clientBufferLimitsConfig = type { i64, i64, i64 }
%struct.redisServer = type { i32, i64, ptr, ptr, ptr, i32, i32, i32, i32, i32, ptr, ptr, ptr, ptr, ptr, ptr, i32, i32, i64, i32, i32, i32, i32, ptr, i32, i32, [41 x i8], i32, i64, i32, i32, i32, ptr, ptr, i32, i32, i64, ptr, ptr, ptr, ptr, [2 x i32], i32, i32, i32, i32, i32, [16 x ptr], i32, ptr, ptr, i32, [8 x %struct.connListener], i32, %struct.connListener, ptr, ptr, ptr, ptr, ptr, ptr, ptr, ptr, ptr, ptr, i32, ptr, i32, ptr, [3 x %struct.pause_event], [256 x i8], ptr, i64, i32, i32, i32, i32, i64, i32, i32, i32, i32, i32, i64, i64, i64, i64, i64, i64, i64, i64, i64, double, i64, i64, i64, i64, i64, i64, i64, i64, i64, i64, i64, i64, i64, i64, i64, i64, i64, i64, i64, i64, double, i64, i64, i64, i64, i64, ptr, i64, i64, i64, %struct.malloc_stats, i64, i64, i64, i64, i64, i64, i64, i64, i64, i64, i64, i64, double, [4 x i64], i64, i64, i64, i64, i64, i64, i64, i64, i64, i64, [7 x %struct.anon], i64, i64, i64, i64, i64, i64, [4 x %struct.durationStats], i32, i32, i32, i32, i32, i32, i32, i32, i32, i32, i64, i32, i32, i32, i32, i64, i64, i32, i32, i32, i32, i32, ptr, [3 x %struct.clientBufferLimitsConfig], i32, i32, ptr, i32, i32, i32, i32, ptr, ptr, i32, i32, i64, i64, i64, i64, i64, i32, i32, ptr, i32, i32, i64, i64, i64, i64, i64, i32, i32, i64, i32, i32, i32, i32, i32, i32, i32, i32, ptr, i32, i64, i64, i64, i64, ptr, i32, ptr, i32, i32, i32, i64, i64, i64, i64, i32, i32, i32, i32, i32, i32, ptr, i32, i32, ptr, i32, i32, i32, [2 x i32], i32, %struct.redisOpArray, i32, ptr, i32, ptr, i32, i32, i32, i32, i32, i32, i32, [41 x i8], [41 x i8], i64, i64, i64, i64, i32, i32, ptr, i64, i64, i64, i32, i32, i32, i32, i32, i32, i32, i64, ptr, ptr, ptr, ptr, i32, i32, ptr, ptr, i32, i32, i64, i64, i64, ptr, i32, ptr, i64, i32, i32, i32, i64, i32, i32, i32, i32, ptr, i32, i32, [41 x i8], i64, i32, ptr, i32, i32, i64, i64, i32, i32, i32, i32, i32, i64, [3 x i32], i32, i32, i32, [9 x i32], ptr, ptr, i32, i64, ptr, ptr, i32, i32, i32, i32, i64, i64, i64, i64, i64, i64, i64, i64, i64, i64, i32, i32, i64, i64, i32, i64, i64, i64, i64, i64, ptr, ptr, i32, ptr, i32, i32, i32, i64, i64, ptr, ptr, i32, i32, i32, i32, i32, ptr, ptr, ptr, i32, i32, i32, i32, i32, i32, i32, i64, i32, i64, i32, i32, i32, i32, i32, i32, i32, i64, ptr, ptr, i64, ptr, i32, %struct.aclInfo, i32, i64, i32, i32, i32, %struct.redisTLSContextConfig, ptr, ptr, ptr, ptr, ptr, i64, i32, ptr, i32, i32, i32, i64, i32, ptr }
%struct.connListener = type { [16 x i32], i32, ptr, i32, i32, ptr, ptr }
%struct.pause_event = type { i32, i64 }
%struct.malloc_stats = type { i64, i64, i64, i64, i64 }
%struct.anon = type { i64, i64, [16 x i64], i32 }
%struct.durationStats = type { i64, i64, i64 }
%struct.redisOpArray = type { ptr, i32, i32 }
%struct.aclInfo = type { i64, i64, i64, i64 }
%struct.redisTLSContextConfig = type { ptr, ptr, ptr, ptr, ptr, ptr, ptr, ptr, ptr, ptr, ptr, ptr, i32, i32, i32, i32 }
%struct.sdshdr8 = type { i8, i8, i8, [0 x i8] }
%struct.sdshdr16 = type <{ i16, i16, i8, [0 x i8] }>
%struct.sdshdr32 = type <{ i32, i32, i8, [0 x i8] }>
%struct.sdshdr64 = type <{ i64, i64, i8, [0 x i8] }>

@server = external global %struct.redisServer, align 8
@.str.408 = private unnamed_addr constant [35 x i8] c"Too many bind addresses specified.\00", align 1

; Function Attrs: nounwind uwtable
define internal i64 @sdslen(ptr noundef %s) #0 {
entry:
  %retval = alloca i64, align 8
  %s.addr = alloca ptr, align 8
  %flags = alloca i8, align 1
  store ptr %s, ptr %s.addr, align 8
  %0 = load ptr, ptr %s.addr, align 8
  %arrayidx = getelementptr inbounds i8, ptr %0, i64 -1
  %1 = load i8, ptr %arrayidx, align 1
  store i8 %1, ptr %flags, align 1
  %2 = load i8, ptr %flags, align 1
  %conv = zext i8 %2 to i32
  %and = and i32 %conv, 7
  switch i32 %and, label %sw.epilog [
    i32 0, label %sw.bb
    i32 1, label %sw.bb3
    i32 2, label %sw.bb5
    i32 3, label %sw.bb9
    i32 4, label %sw.bb13
  ]

sw.bb:                                            ; preds = %entry
  %3 = load i8, ptr %flags, align 1
  %conv1 = zext i8 %3 to i32
  %shr = ashr i32 %conv1, 3
  %conv2 = sext i32 %shr to i64
  store i64 %conv2, ptr %retval, align 8
  br label %return

sw.bb3:                                           ; preds = %entry
  %4 = load ptr, ptr %s.addr, align 8
  %add.ptr = getelementptr inbounds i8, ptr %4, i64 -3
  %len = getelementptr inbounds %struct.sdshdr8, ptr %add.ptr, i32 0, i32 0
  %5 = load i8, ptr %len, align 1
  %conv4 = zext i8 %5 to i64
  store i64 %conv4, ptr %retval, align 8
  br label %return

sw.bb5:                                           ; preds = %entry
  %6 = load ptr, ptr %s.addr, align 8
  %add.ptr6 = getelementptr inbounds i8, ptr %6, i64 -5
  %len7 = getelementptr inbounds %struct.sdshdr16, ptr %add.ptr6, i32 0, i32 0
  %7 = load i16, ptr %len7, align 1
  %conv8 = zext i16 %7 to i64
  store i64 %conv8, ptr %retval, align 8
  br label %return

sw.bb9:                                           ; preds = %entry
  %8 = load ptr, ptr %s.addr, align 8
  %add.ptr10 = getelementptr inbounds i8, ptr %8, i64 -9
  %len11 = getelementptr inbounds %struct.sdshdr32, ptr %add.ptr10, i32 0, i32 0
  %9 = load i32, ptr %len11, align 1
  %conv12 = zext i32 %9 to i64
  store i64 %conv12, ptr %retval, align 8
  br label %return

sw.bb13:                                          ; preds = %entry
  %10 = load ptr, ptr %s.addr, align 8
  %add.ptr14 = getelementptr inbounds i8, ptr %10, i64 -17
  %len15 = getelementptr inbounds %struct.sdshdr64, ptr %add.ptr14, i32 0, i32 0
  %11 = load i64, ptr %len15, align 1
  store i64 %11, ptr %retval, align 8
  br label %return

sw.epilog:                                        ; preds = %entry
  store i64 0, ptr %retval, align 8
  br label %return

return:                                           ; preds = %sw.epilog, %sw.bb13, %sw.bb9, %sw.bb5, %sw.bb3, %sw.bb
  %12 = load i64, ptr %retval, align 8
  ret i64 %12
}

; Function Attrs: nounwind uwtable
define internal i32 @setConfigBindOption(ptr noundef %config, ptr noundef %argv, i32 noundef %argc, ptr noundef %err) #0 {
entry:
  %retval = alloca i32, align 4
  %config.addr = alloca ptr, align 8
  %argv.addr = alloca ptr, align 8
  %argc.addr = alloca i32, align 4
  %err.addr = alloca ptr, align 8
  %j = alloca i32, align 4
  store ptr %config, ptr %config.addr, align 8
  store ptr %argv, ptr %argv.addr, align 8
  store i32 %argc, ptr %argc.addr, align 4
  store ptr %err, ptr %err.addr, align 8
  %0 = load i32, ptr %argc.addr, align 4
  %cmp = icmp sgt i32 %0, 16
  br i1 %cmp, label %if.then, label %if.end

if.then:                                          ; preds = %entry
  %1 = load ptr, ptr %err.addr, align 8
  store ptr @.str.408, ptr %1, align 8
  store i32 0, ptr %retval, align 4
  br label %return

if.end:                                           ; preds = %entry
  %2 = load i32, ptr %argc.addr, align 4
  %cmp1 = icmp eq i32 %2, 1
  br i1 %cmp1, label %land.lhs.true, label %if.end4

land.lhs.true:                                    ; preds = %if.end
  %3 = load ptr, ptr %argv.addr, align 8
  %arrayidx = getelementptr inbounds ptr, ptr %3, i64 0
  %4 = load ptr, ptr %arrayidx, align 8
  %call = call i64 @sdslen(ptr noundef %4)
  %cmp2 = icmp eq i64 %call, 0
  br i1 %cmp2, label %if.then3, label %if.end4

if.then3:                                         ; preds = %land.lhs.true
  store i32 0, ptr %argc.addr, align 4
  br label %if.end4

if.end4:                                          ; preds = %if.then3, %land.lhs.true, %if.end
  store i32 0, ptr %j, align 4
  br label %for.cond

for.cond:                                         ; preds = %for.inc, %if.end4
  %5 = load i32, ptr %j, align 4
  %6 = load i32, ptr getelementptr inbounds (%struct.redisServer, ptr @server, i32 0, i32 48), align 8
  %cmp5 = icmp slt i32 %5, %6
  br i1 %cmp5, label %for.body, label %for.end

for.body:                                         ; preds = %for.cond
  %7 = load i32, ptr %j, align 4
  %idxprom = sext i32 %7 to i64
  %arrayidx6 = getelementptr inbounds [16 x ptr], ptr getelementptr inbounds (%struct.redisServer, ptr @server, i32 0, i32 47), i64 0, i64 %idxprom
  %8 = load ptr, ptr %arrayidx6, align 8
  call void @zfree(ptr noundef %8)
  br label %for.inc

for.inc:                                          ; preds = %for.body
  %9 = load i32, ptr %j, align 4
  %inc = add nsw i32 %9, 1
  store i32 %inc, ptr %j, align 4
  br label %for.cond, !llvm.loop !55

for.end:                                          ; preds = %for.cond
  store i32 0, ptr %j, align 4
  br label %for.cond7

for.cond7:                                        ; preds = %for.inc15, %for.end
  %10 = load i32, ptr %j, align 4
  %11 = load i32, ptr %argc.addr, align 4
  %cmp8 = icmp slt i32 %10, %11
  br i1 %cmp8, label %for.body9, label %for.end17

for.body9:                                        ; preds = %for.cond7
  %12 = load ptr, ptr %argv.addr, align 8
  %13 = load i32, ptr %j, align 4
  %idxprom10 = sext i32 %13 to i64
  %arrayidx11 = getelementptr inbounds ptr, ptr %12, i64 %idxprom10
  %14 = load ptr, ptr %arrayidx11, align 8
  %call12 = call noalias ptr @zstrdup(ptr noundef %14)
  %15 = load i32, ptr %j, align 4
  %idxprom13 = sext i32 %15 to i64
  %arrayidx14 = getelementptr inbounds [16 x ptr], ptr getelementptr inbounds (%struct.redisServer, ptr @server, i32 0, i32 47), i64 0, i64 %idxprom13
  store ptr %call12, ptr %arrayidx14, align 8
  br label %for.inc15

for.inc15:                                        ; preds = %for.body9
  %16 = load i32, ptr %j, align 4
  %inc16 = add nsw i32 %16, 1
  store i32 %inc16, ptr %j, align 4
  br label %for.cond7, !llvm.loop !56

for.end17:                                        ; preds = %for.cond7
  %17 = load i32, ptr %argc.addr, align 4
  store i32 %17, ptr getelementptr inbounds (%struct.redisServer, ptr @server, i32 0, i32 48), align 8
  store i32 1, ptr %retval, align 4
  br label %return

return:                                           ; preds = %for.end17, %if.then
  %18 = load i32, ptr %retval, align 4
  ret i32 %18
}