; Function Attrs: nounwind uwtable
define internal noundef i32 @setConfigBindOption(ptr nocapture readnone %config, ptr nocapture noundef readonly %argv, i32 noundef %argc, ptr nocapture noundef writeonly %err) #2 {
entry:
  %cmp = icmp sgt i32 %argc, 16
  br i1 %cmp, label %if.then, label %if.end

if.then:                                          ; preds = %entry
  store ptr @.str.408, ptr %err, align 8
  br label %return

if.end:                                           ; preds = %entry
  %cmp1 = icmp eq i32 %argc, 1
  br i1 %cmp1, label %land.lhs.true, label %if.end4

land.lhs.true:                                    ; preds = %if.end
  %0 = load ptr, ptr %argv, align 8
  %arrayidx.i = getelementptr inbounds i8, ptr %0, i64 -1
  %1 = load i8, ptr %arrayidx.i, align 1
  %conv.i = zext i8 %1 to i32
  %and.i = and i32 %conv.i, 7
  switch i32 %and.i, label %sdslen.exit.thread [
    i32 0, label %sw.bb.i
    i32 1, label %sw.bb3.i
    i32 2, label %sw.bb5.i
    i32 3, label %sw.bb9.i
    i32 4, label %sw.bb13.i
  ]

sw.bb.i:                                          ; preds = %land.lhs.true
  %shr.i = lshr i32 %conv.i, 3
  %conv2.i = zext nneg i32 %shr.i to i64
  br label %sdslen.exit

sw.bb3.i:                                         ; preds = %land.lhs.true
  %add.ptr.i = getelementptr inbounds i8, ptr %0, i64 -3
  %2 = load i8, ptr %add.ptr.i, align 1
  %conv4.i = zext i8 %2 to i64
  br label %sdslen.exit

sw.bb5.i:                                         ; preds = %land.lhs.true
  %add.ptr6.i = getelementptr inbounds i8, ptr %0, i64 -5
  %3 = load i16, ptr %add.ptr6.i, align 1
  %conv8.i = zext i16 %3 to i64
  br label %sdslen.exit

sw.bb9.i:                                         ; preds = %land.lhs.true
  %add.ptr10.i = getelementptr inbounds i8, ptr %0, i64 -9
  %4 = load i32, ptr %add.ptr10.i, align 1
  %conv12.i = zext i32 %4 to i64
  br label %sdslen.exit

sw.bb13.i:                                        ; preds = %land.lhs.true
  %add.ptr14.i = getelementptr inbounds i8, ptr %0, i64 -17
  %5 = load i64, ptr %add.ptr14.i, align 1
  br label %sdslen.exit

sdslen.exit:                                      ; preds = %sw.bb.i, %sw.bb3.i, %sw.bb5.i, %sw.bb9.i, %sw.bb13.i
  %retval.0.i = phi i64 [ %5, %sw.bb13.i ], [ %conv12.i, %sw.bb9.i ], [ %conv8.i, %sw.bb5.i ], [ %conv4.i, %sw.bb3.i ], [ %conv2.i, %sw.bb.i ]
  %retval.0.i.fr = freeze i64 %retval.0.i
  %cmp2 = icmp eq i64 %retval.0.i.fr, 0
  br i1 %cmp2, label %sdslen.exit.thread, label %if.end4

sdslen.exit.thread:                               ; preds = %land.lhs.true, %sdslen.exit
  br label %if.end4

if.end4:                                          ; preds = %sdslen.exit.thread, %sdslen.exit, %if.end
  %argc.addr.0 = phi i32 [ %argc, %if.end ], [ 0, %sdslen.exit.thread ], [ 1, %sdslen.exit ]
  %6 = load i32, ptr getelementptr inbounds (%struct.redisServer, ptr @server, i64 0, i32 48), align 8
  %cmp514 = icmp sgt i32 %6, 0
  br i1 %cmp514, label %for.body, label %for.cond7.preheader

for.cond7.preheader:                              ; preds = %for.body, %if.end4
  %cmp816 = icmp sgt i32 %argc.addr.0, 0
  br i1 %cmp816, label %for.body9.preheader, label %for.end17

for.body9.preheader:                              ; preds = %for.cond7.preheader
  %wide.trip.count = zext nneg i32 %argc.addr.0 to i64
  br label %for.body9

for.body:                                         ; preds = %if.end4, %for.body
  %indvars.iv = phi i64 [ %indvars.iv.next, %for.body ], [ 0, %if.end4 ]
  %arrayidx6 = getelementptr inbounds %struct.redisServer, ptr @server, i64 0, i32 47, i64 %indvars.iv
  %7 = load ptr, ptr %arrayidx6, align 8
  tail call void @zfree(ptr noundef %7) #24
  %indvars.iv.next = add nuw nsw i64 %indvars.iv, 1
  %8 = load i32, ptr getelementptr inbounds (%struct.redisServer, ptr @server, i64 0, i32 48), align 8
  %9 = sext i32 %8 to i64
  %cmp5 = icmp slt i64 %indvars.iv.next, %9
  br i1 %cmp5, label %for.body, label %for.cond7.preheader, !llvm.loop !56

for.body9:                                        ; preds = %for.body9.preheader, %for.body9
  %indvars.iv19 = phi i64 [ 0, %for.body9.preheader ], [ %indvars.iv.next20, %for.body9 ]
  %arrayidx11 = getelementptr inbounds ptr, ptr %argv, i64 %indvars.iv19
  %10 = load ptr, ptr %arrayidx11, align 8
  %call12 = tail call noalias ptr @zstrdup(ptr noundef %10) #24
  %arrayidx14 = getelementptr inbounds %struct.redisServer, ptr @server, i64 0, i32 47, i64 %indvars.iv19
  store ptr %call12, ptr %arrayidx14, align 8
  %indvars.iv.next20 = add nuw nsw i64 %indvars.iv19, 1
  %exitcond.not = icmp eq i64 %indvars.iv.next20, %wide.trip.count
  br i1 %exitcond.not, label %for.end17, label %for.body9, !llvm.loop !57

for.end17:                                        ; preds = %for.body9, %for.cond7.preheader
  store i32 %argc.addr.0, ptr getelementptr inbounds (%struct.redisServer, ptr @server, i64 0, i32 48), align 8
  br label %return

return:                                           ; preds = %for.end17, %if.then
  %retval.0 = phi i32 [ 0, %if.then ], [ 1, %for.end17 ]
  ret i32 %retval.0
}